Certificate:
    Data:
        Version: 3 (0x2)
        Serial Number: 13135752980835098763 (0xb64b91bd67f4608b)
    Signature Algorithm: sha256WithRSAEncryption
        Issuer: CN=Monaca
        Validity
            Not Before: Mar 30 16:17:37 2016 GMT
            Not After : Mar 30 16:17:37 2019 GMT
        Subject: CN=monaca-debug-app
        Subject Public Key Info:
            Public Key Algorithm: rsaEncryption
                Public-Key: (2048 bit)
                Modulus:
                    00:d0:88:4a:8a:ae:88:cf:58:81:77:9c:bb:80:58:
                    ea:05:f4:0c:88:14:8a:9b:58:97:fd:c4:32:cb:81:
                    eb:44:6e:f3:10:d2:8d:54:a2:b1:10:40:e4:ab:e3:
                    97:3a:ea:95:8d:f8:f6:10:8a:58:63:16:89:29:72:
                    01:2d:60:a0:76:20:c0:06:1e:64:53:9b:56:a4:ae:
                    8b:7a:0f:7f:f3:18:7a:5d:90:a3:2e:1d:5a:37:a7:
                    89:fd:e3:35:4c:e6:31:66:4e:e3:4f:e3:9a:05:62:
                    60:d3:0b:b5:3c:e0:d5:35:bc:53:2a:bb:1d:b2:65:
                    9d:64:da:74:da:39:d3:85:ea:a6:4a:26:02:ac:26:
                    48:16:a5:c0:cb:b6:32:ed:9b:65:0d:84:d7:e5:f4:
                    93:09:72:d1:19:e2:62:9c:83:32:e9:1b:46:75:8c:
                    6c:ba:45:b2:04:1a:4f:ed:0a:0b:49:38:84:10:0b:
                    8a:6d:fa:53:77:d8:0b:e5:d1:c8:3a:30:65:29:b1:
                    a2:61:b5:18:21:42:e4:82:b2:41:7b:f6:bf:9f:2c:
                    90:1e:c8:c4:b0:67:8a:e2:a4:43:8a:a9:65:a3:d1:
                    23:99:e2:ff:22:f4:8d:c3:3d:ed:f3:9a:ce:e5:c0:
                    f2:6b:40:fc:e8:0f:df:99:8d:6b:e8:53:ed:8b:71:
                    7e:2f
                Exponent: 65537 (0x10001)
        X509v3 extensions:
            X509v3 Basic Constraints: 
                CA:FALSE
            Netscape Comment: 
                OpenSSL Generated Certificate
            X509v3 Subject Key Identifier: 
                DE:E2:DB:E1:C4:C4:80:00:25:2A:F4:7C:5B:8E:94:52:FE:EA:CC:5A
            X509v3 Authority Key Identifier: 
                keyid:E1:C2:82:2D:04:9F:BC:50:9C:53:B3:61:5B:6D:6F:70:F6:CA:4F:01

            X509v3 Extended Key Usage: 
                Code Signing
    Signature Algorithm: sha256WithRSAEncryption
         7b:c8:a7:b6:4a:6f:15:4d:c2:3b:35:a8:33:67:ad:1a:79:07:
         49:66:bc:c6:78:d2:1a:82:e8:43:95:c2:5e:f2:9c:15:0c:f4:
         61:f9:93:13:ce:6a:d7:ca:18:98:13:20:e7:8d:7c:ee:c8:fe:
         2e:00:72:03:37:11:3d:6d:7c:9b:0a:1d:36:29:5f:a5:a3:7e:
         b0:2d:b0:c2:e7:6f:09:4c:3e:44:76:4d:bb:f2:9c:0c:e7:63:
         6f:0e:f2:21:15:bf:cb:d4:e3:a1:23:c8:36:23:c2:99:68:23:
         41:2a:b6:7a:e0:d2:bd:3c:ce:6c:9a:cc:2d:7f:8d:7f:f5:8c:
         69:0e:02:5a:ad:76:5e:0a:6a:53:a4:e2:eb:6a:2d:90:89:57:
         98:1e:0e:64:53:6b:40:15:e3:ae:33:47:b3:9b:90:b9:b7:19:
         64:70:86:57:49:9b:3f:1d:f7:bd:dd:b5:36:b8:e6:08:dc:e2:
         91:43:4c:fc:7c:8a:67:e5:80:0d:79:c7:33:4b:2b:a6:35:72:
         5a:68:4b:af:4f:dc:73:c1:63:f6:20:2a:56:4a:84:65:6c:56:
         ed:b7:fd:9c:fd:3d:b4:30:24:03:7a:6a:4a:d1:9f:f3:ab:46:
         34:2c:51:0e:4c:ea:21:75:66:9a:76:b0:1d:d0:f8:86:cb:85:
         4d:c2:7e:55
-----BEGIN CERTIFICATE-----
MIIDQTCCAimgAwIBAgIJALZLkb1n9GCLMA0GCSqGSIb3DQEBCwUAMBExDzANBgNV
BAMTBk1vbmFjYTAeFw0xNjAzMzAxNjE3MzdaFw0xOTAzMzAxNjE3MzdaMBsxGTAX
BgNVBAMTEG1vbmFjYS1kZWJ1Zy1hcHAwggEiMA0GCSqGSIb3DQEBAQUAA4IBDwAw
ggEKAoIBAQDQiEqKrojPWIF3nLuAWOoF9AyIFIqbWJf9xDLLgetEbvMQ0o1UorEQ
QOSr45c66pWN+PYQilhjFokpcgEtYKB2IMAGHmRTm1akrot6D3/zGHpdkKMuHVo3
p4n94zVM5jFmTuNP45oFYmDTC7U84NU1vFMqux2yZZ1k2nTaOdOF6qZKJgKsJkgW
pcDLtjLtm2UNhNfl9JMJctEZ4mKcgzLpG0Z1jGy6RbIEGk/tCgtJOIQQC4pt+lN3
2Avl0cg6MGUpsaJhtRghQuSCskF79r+fLJAeyMSwZ4ripEOKqWWj0SOZ4v8i9I3D
Pe3zms7lwPJrQPzoD9+ZjWvoU+2LcX4vAgMBAAGjgZEwgY4wCQYDVR0TBAIwADAs
BglghkgBhvhCAQ0EHxYdT3BlblNTTCBHZW5lcmF0ZWQgQ2VydGlmaWNhdGUwHQYD
VR0OBBYEFN7i2+HExIAAJSr0fFuOlFL+6sxaMB8GA1UdIwQYMBaAFOHCgi0En7xQ
nFOzYVttb3D2yk8BMBMGA1UdJQQMMAoGCCsGAQUFBwMDMA0GCSqGSIb3DQEBCwUA
A4IBAQB7yKe2Sm8VTcI7NagzZ60aeQdJZrzGeNIaguhDlcJe8pwVDPRh+ZMTzmrX
yhiYEyDnjXzuyP4uAHIDNxE9bXybCh02KV+lo36wLbDC528JTD5Edk278pwM52Nv
DvIhFb/L1OOhI8g2I8KZaCNBKrZ64NK9PM5smswtf41/9YxpDgJarXZeCmpTpOLr
ai2QiVeYHg5kU2tAFeOuM0ezm5C5txlkcIZXSZs/Hfe93bU2uOYI3OKRQ0z8fIpn
5YANecczSyumNXJaaEuvT9xzwWP2ICpWSoRlbFbtt/2c/T20MCQDempK0Z/zq0Y0
LFEOTOohdWaadrAd0PiGy4VNwn5V
-----END CERTIFICATE-----
